; Function Attrs: null_pointer_is_valid sspstrong uwtable
define hidden i32 @samr_dissect_struct_DispEntryGeneral(ptr noundef %0, i32 noundef %1, ptr noundef %2, ptr noundef %3, ptr noundef %4, ptr noundef %5, i32 noundef %6, i32 %7) local_unnamed_addr #0 {
  %9 = getelementptr inbounds nuw i8, ptr %4, i64 64
  %10 = load ptr, ptr %9, align 8
  %11 = getelementptr inbounds nuw i8, ptr %10, i64 96
  %12 = load i32, ptr %11, align 8
  %13 = and i32 %12, 1
  %.not = icmp eq i32 %13, 0
  %14 = getelementptr inbounds nuw i8, ptr %4, i64 25
  %15 = load i8, ptr %14, align 1, !range !6, !noundef !7
  %16 = trunc nuw i8 %15 to i1
  br i1 %.not, label %22, label %17

17:                                               ; preds = %8
  %18 = and i32 %1, 7
  %.not65 = icmp eq i32 %18, 0
  %or.cond = or i1 %.not65, %16
  br i1 %or.cond, label %27, label %19

19:                                               ; preds = %17
  %20 = and i32 %1, -8
  %21 = add i32 %20, 8
  br label %27

22:                                               ; preds = %8
  %23 = and i32 %1, 3
  %.not64 = icmp eq i32 %23, 0
  %or.cond69 = or i1 %.not64, %16
  br i1 %or.cond69, label %27, label %24

24:                                               ; preds = %22
  %25 = and i32 %1, -4
  %26 = add i32 %25, 4
  br label %27

27:                                               ; preds = %22, %24, %17, %19
  %.0 = phi i32 [ %1, %17 ], [ %21, %19 ], [ %1, %22 ], [ %26, %24 ]
  %.not66 = icmp eq ptr %3, null
  br i1 %.not66, label %32, label %28

28:                                               ; preds = %27
  %29 = tail call ptr @proto_tree_add_item(ptr noundef nonnull %3, i32 noundef %6, ptr noundef %0, i32 noundef %.0, i32 noundef -1, i32 noundef 0)
  %30 = load i32, ptr @ett_samr_samr_DispEntryGeneral, align 4
  %31 = tail call ptr @proto_item_add_subtree(ptr noundef %29, i32 noundef %30)
  br label %32

32:                                               ; preds = %28, %27
  %.062 = phi ptr [ %29, %28 ], [ null, %27 ]
  %.061 = phi ptr [ %31, %28 ], [ null, %27 ]
  %33 = load i32, ptr @hf_samr_samr_DispEntryGeneral_idx, align 4
  %34 = tail call i32 @PIDL_dissect_uint32(ptr noundef %0, i32 noundef %.0, ptr noundef %2, ptr noundef %.061, ptr noundef %4, ptr noundef %5, i32 noundef %33, i32 noundef 0)
  %35 = load i32, ptr @hf_samr_rid, align 4
  %36 = tail call i32 @PIDL_dissect_uint32(ptr noundef %0, i32 noundef %34, ptr noundef %2, ptr noundef %.061, ptr noundef %4, ptr noundef %5, i32 noundef %35, i32 noundef 0)
  %37 = load i32, ptr @hf_samr_samr_DispEntryGeneral_acct_flags, align 4
  %38 = tail call i32 @samr_dissect_bitmap_AcctFlags(ptr noundef %0, i32 noundef %36, ptr noundef %2, ptr noundef %.061, ptr noundef %4, ptr noundef %5, i32 noundef %37, i32 poison)
  %39 = load i32, ptr @hf_samr_samr_DispEntryGeneral_account_name, align 4
  %40 = tail call i32 @dissect_ndr_lsa_String(ptr noundef %0, i32 noundef %38, ptr noundef %2, ptr noundef %.061, ptr noundef %4, ptr noundef %5, i32 noundef 0, i32 noundef %39)
  %41 = load i32, ptr @hf_samr_samr_DispEntryGeneral_description, align 4
  %42 = tail call i32 @dissect_ndr_lsa_String(ptr noundef %0, i32 noundef %40, ptr noundef %2, ptr noundef %.061, ptr noundef %4, ptr noundef %5, i32 noundef 0, i32 noundef %41)
  %43 = load i32, ptr @hf_samr_samr_DispEntryGeneral_full_name, align 4
  %44 = tail call i32 @dissect_ndr_lsa_String(ptr noundef %0, i32 noundef %42, ptr noundef %2, ptr noundef %.061, ptr noundef %4, ptr noundef %5, i32 noundef 0, i32 noundef %43)
  %45 = sub i32 %44, %.0
  tail call void @proto_item_set_len(ptr noundef %.062, i32 noundef %45)
  %46 = load ptr, ptr %9, align 8
  %47 = getelementptr inbounds nuw i8, ptr %46, i64 96
  %48 = load i32, ptr %47, align 8
  %49 = and i32 %48, 1
  %.not67 = icmp eq i32 %49, 0
  br i1 %.not67, label %58, label %50

50:                                               ; preds = %32
  %51 = getelementptr inbounds nuw i8, ptr %4, i64 25
  %52 = load i8, ptr %51, align 1, !range !6, !noundef !7
  %53 = trunc nuw i8 %52 to i1
  %54 = and i32 %44, 7
  %.not68 = icmp eq i32 %54, 0
  %or.cond70 = or i1 %.not68, %53
  br i1 %or.cond70, label %58, label %55

55:                                               ; preds = %50
  %56 = and i32 %44, -8
  %57 = add i32 %56, 8
  br label %58

58:                                               ; preds = %55, %50, %32
  %.1 = phi i32 [ %44, %50 ], [ %57, %55 ], [ %44, %32 ]
  ret i32 %.1
}